; Function Attrs: mustprogress uwtable
define hidden noundef ptr @_ZN3sat10proof_trim3delERK7svectorINS_7literalEjE(ptr noundef nonnull align 8 dereferenceable(4376) %0, ptr noundef nonnull align 8 dereferenceable(8) %1) local_unnamed_addr #3 align 2 {
  %3 = load ptr, ptr %1, align 8, !tbaa !32
  %4 = icmp eq ptr %3, null
  br i1 %4, label %_ZNK6vectorIN3sat7literalELb0EjE4sizeEv.exit.thread, label %_ZNK6vectorIN3sat7literalELb0EjE4sizeEv.exit

_ZNK6vectorIN3sat7literalELb0EjE4sizeEv.exit:     ; preds = %2
  %5 = getelementptr inbounds i8, ptr %3, i64 -4
  %6 = load i32, ptr %5, align 4, !tbaa !9
  %7 = icmp eq i32 %6, 2
  br i1 %7, label %8, label %_ZNK6vectorIN3sat7literalELb0EjE4sizeEv.exit.thread

8:                                                ; preds = %_ZNK6vectorIN3sat7literalELb0EjE4sizeEv.exit
  %.sroa.05.0.copyload = load i32, ptr %3, align 4, !tbaa !9
  %9 = getelementptr inbounds nuw i8, ptr %3, i64 4
  %.sroa.0.0.copyload = load i32, ptr %9, align 4, !tbaa !9
  tail call void @_ZN3sat6solver17detach_bin_clauseENS_7literalES1_b(ptr noundef nonnull align 8 dereferenceable(4264) %0, i32 %.sroa.05.0.copyload, i32 %.sroa.0.0.copyload, i1 noundef zeroext true)
  br label %_ZNK6vectorIPN3sat6clauseELb0EjE5emptyEv.exit.thread

_ZNK6vectorIN3sat7literalELb0EjE4sizeEv.exit.thread: ; preds = %2, %_ZNK6vectorIN3sat7literalELb0EjE4sizeEv.exit
  %10 = getelementptr inbounds nuw i8, ptr %0, i64 4336
  %11 = tail call noundef ptr @_ZNK9table2mapI17default_map_entryI7svectorIN3sat7literalEjENS2_10proof_trim11clause_infoEENS5_4hashENS5_2eqEE9find_coreERKS4_(ptr noundef nonnull align 8 dereferenceable(24) %10, ptr noundef nonnull align 8 dereferenceable(8) %1)
  %.not = icmp eq ptr %11, null
  br i1 %.not, label %_ZNK6vectorIPN3sat6clauseELb0EjE5emptyEv.exit.thread, label %12

12:                                               ; preds = %_ZNK6vectorIN3sat7literalELb0EjE4sizeEv.exit.thread
  %13 = getelementptr inbounds nuw i8, ptr %11, i64 16
  %14 = load ptr, ptr %13, align 8, !tbaa !47
  %15 = icmp eq ptr %14, null
  br i1 %15, label %_ZNK6vectorIPN3sat6clauseELb0EjE5emptyEv.exit.thread, label %_ZNK6vectorIPN3sat6clauseELb0EjE5emptyEv.exit

_ZNK6vectorIPN3sat6clauseELb0EjE5emptyEv.exit:    ; preds = %12
  %16 = getelementptr inbounds i8, ptr %14, i64 -4
  %17 = load i32, ptr %16, align 4, !tbaa !9
  %18 = icmp eq i32 %17, 0
  br i1 %18, label %_ZNK6vectorIPN3sat6clauseELb0EjE5emptyEv.exit.thread, label %_ZN6vectorIPN3sat6clauseELb0EjE4backEv.exit

_ZN6vectorIPN3sat6clauseELb0EjE4backEv.exit:      ; preds = %_ZNK6vectorIPN3sat6clauseELb0EjE5emptyEv.exit
  %19 = add i32 %17, -1
  %20 = zext i32 %19 to i64
  %21 = getelementptr inbounds nuw ptr, ptr %14, i64 %20
  %22 = load ptr, ptr %21, align 8, !tbaa !38
  tail call void @_ZN3sat6solver13detach_clauseERNS_6clauseE(ptr noundef nonnull align 8 dereferenceable(4264) %0, ptr noundef nonnull align 4 dereferenceable(20) %22)
  %23 = load ptr, ptr %13, align 8, !tbaa !47
  %24 = getelementptr inbounds i8, ptr %23, i64 -4
  %25 = load i32, ptr %24, align 4, !tbaa !9
  %26 = add i32 %25, -1
  store i32 %26, ptr %24, align 4, !tbaa !9
  br label %_ZNK6vectorIPN3sat6clauseELb0EjE5emptyEv.exit.thread

_ZNK6vectorIPN3sat6clauseELb0EjE5emptyEv.exit.thread: ; preds = %12, %_ZNK6vectorIN3sat7literalELb0EjE4sizeEv.exit.thread, %_ZN6vectorIPN3sat6clauseELb0EjE4backEv.exit, %_ZNK6vectorIPN3sat6clauseELb0EjE5emptyEv.exit, %8
  %.0 = phi ptr [ null, %8 ], [ null, %_ZNK6vectorIN3sat7literalELb0EjE4sizeEv.exit.thread ], [ null, %_ZNK6vectorIPN3sat6clauseELb0EjE5emptyEv.exit ], [ %22, %_ZN6vectorIPN3sat6clauseELb0EjE4backEv.exit ], [ null, %12 ]
  ret ptr %.0
}